target datalayout = "e-m:e-p270:32:32-p271:32:32-p272:64:64-i64:64-i128:128-f80:128-n8:16:32:64-S128"
target triple = "x86_64-unknown-linux-gnu"

@.str.261 = private unnamed_addr constant [36 x i8] c"\0A------ MODULES INFO OUTPUT ------\0A\00", align 1

; Function Attrs: nounwind uwtable
define dso_local void @logModulesInfo() #0 {
entry:
  %infostring = alloca ptr, align 8
  call void @serverLogRaw(i32 noundef 1027, ptr noundef @.str.261)
  %call = call ptr @sdsempty()
  %call1 = call ptr @modulesCollectInfo(ptr noundef %call, ptr noundef null, i32 noundef 1, i32 noundef 0)
  store ptr %call1, ptr %infostring, align 8
  %0 = load ptr, ptr %infostring, align 8
  call void @serverLogRaw(i32 noundef 1027, ptr noundef %0)
  %1 = load ptr, ptr %infostring, align 8
  call void @sdsfree(ptr noundef %1)
  ret void
}