; Function Attrs: nounwind uwtable
define dso_local void @logModulesInfo() local_unnamed_addr #0 {
entry:
  tail call void @serverLogRaw(i32 noundef 1027, ptr noundef nonnull @.str.261) #22
  %call = tail call ptr @sdsempty() #22
  %call1 = tail call ptr @modulesCollectInfo(ptr noundef %call, ptr noundef null, i32 noundef 1, i32 noundef 0) #22
  tail call void @serverLogRaw(i32 noundef 1027, ptr noundef %call1) #22
  tail call void @sdsfree(ptr noundef %call1) #22
  ret void
}